target datalayout = "e-m:e-p270:32:32-p271:32:32-p272:64:64-i64:64-i128:128-f80:128-n8:16:32:64-S128"
target triple = "x86_64-pc-linux-gnu"

%struct._packet_info = type { ptr, ptr, i32, i32, %struct.nstime_t, %struct.nstime_t, %struct.nstime_t, i8, ptr, ptr, ptr, ptr, %struct._address, %struct._address, %struct._address, %struct._address, %struct._address, %struct._address, i32, ptr, i8, [3 x i8], %struct.anon, i32, i32, i32, i32, ptr, i8, ptr, ptr, i16, i16, i32, i32, i16, i32, i32, ptr, ptr, ptr, i8, i8, i16, i16, i16, i32, i16, i16, ptr, ptr, ptr, ptr, ptr, i32, i32 }
%struct.nstime_t = type { i64, i32 }
%struct._address = type { i32, i32, ptr, ptr }
%struct.anon = type { i8, [3 x i8] }

@hf_bssgp_peak_rate_gran = internal global i32 0, align 4
@hf_bssgp_cr_bit = internal global i32 0, align 4
@hf_bssgp_t_bit = internal global i32 0, align 4
@hf_bssgp_a_bit = internal global i32 0, align 4
@hf_bssgp_precedence = internal global i32 0, align 4
@hf_bssgp_peak_bit_rate = internal global i32 0, align 4
@.str.439 = private unnamed_addr constant [12 x i8] c"Best effort\00", align 1
@.str.440 = private unnamed_addr constant [10 x i8] c"%u bits/s\00", align 1
@.str.441 = private unnamed_addr constant [11 x i8] c"%u kbits/s\00", align 1
@.str.442 = private unnamed_addr constant [4 x i8] c" %s\00", align 1
@.str.443 = private unnamed_addr constant [41 x i8] c"Radio Priority Unknown(Radio priority 3)\00", align 1
@.str.444 = private unnamed_addr constant [31 x i8] c"Priority Unknown(Low priority)\00", align 1

; Function Attrs: null_pointer_is_valid sspstrong uwtable
define internal zeroext i16 @de_bssgp_qos_profile(ptr noundef %0, ptr noundef %1, ptr noundef %2, i32 noundef %3, i32 noundef %4, ptr noundef %5, i32 noundef %6) #1 {
  %8 = alloca ptr, align 8
  %9 = alloca ptr, align 8
  %10 = alloca ptr, align 8
  %11 = alloca i32, align 4
  %12 = alloca i32, align 4
  %13 = alloca ptr, align 8
  %14 = alloca i32, align 4
  %15 = alloca ptr, align 8
  %16 = alloca i32, align 4
  %17 = alloca i16, align 2
  %18 = alloca i8, align 1
  %19 = alloca i8, align 1
  %20 = alloca i32, align 4
  store ptr %0, ptr %8, align 8
  store ptr %1, ptr %9, align 8
  store ptr %2, ptr %10, align 8
  store i32 %3, ptr %11, align 4
  store i32 %4, ptr %12, align 4
  store ptr %5, ptr %13, align 8
  store i32 %6, ptr %14, align 4
  call void @llvm.lifetime.start.p0(i64 8, ptr %15) #4
  call void @llvm.lifetime.start.p0(i64 4, ptr %16) #4
  call void @llvm.lifetime.start.p0(i64 2, ptr %17) #4
  call void @llvm.lifetime.start.p0(i64 1, ptr %18) #4
  call void @llvm.lifetime.start.p0(i64 1, ptr %19) #4
  call void @llvm.lifetime.start.p0(i64 4, ptr %20) #4
  %21 = load i32, ptr %11, align 4
  store i32 %21, ptr %16, align 4
  %22 = load ptr, ptr %10, align 8
  %23 = getelementptr inbounds nuw %struct._packet_info, ptr %22, i32 0, i32 46
  %24 = load i32, ptr %23, align 8
  store i32 %24, ptr %20, align 4
  %25 = load ptr, ptr %8, align 8
  %26 = load i32, ptr %16, align 4
  %27 = call zeroext i16 @tvb_get_ntohs(ptr noundef %25, i32 noundef %26)
  store i16 %27, ptr %17, align 2
  %28 = load i16, ptr %17, align 2
  %29 = zext i16 %28 to i32
  %30 = icmp eq i32 %29, 0
  br i1 %30, label %31, label %39

31:                                               ; preds = %7
  %32 = load ptr, ptr %9, align 8
  %33 = load i32, ptr @hf_bssgp_peak_bit_rate, align 4
  %34 = load ptr, ptr %8, align 8
  %35 = load i32, ptr %16, align 4
  %36 = load i16, ptr %17, align 2
  %37 = zext i16 %36 to i32
  %38 = call ptr (ptr, i32, ptr, i32, i32, i32, ptr, ...) @proto_tree_add_uint_format_value(ptr noundef %32, i32 noundef %33, ptr noundef %34, i32 noundef %35, i32 noundef 2, i32 noundef %37, ptr noundef @.str.439)
  br label %94

39:                                               ; preds = %7
  %40 = load ptr, ptr %8, align 8
  %41 = load i32, ptr %16, align 4
  %42 = add i32 %41, 2
  %43 = call zeroext i8 @tvb_get_uint8(ptr noundef %40, i32 noundef %42)
  %44 = zext i8 %43 to i32
  %45 = and i32 %44, 192
  %46 = trunc i32 %45 to i8
  store i8 %46, ptr %18, align 1
  %47 = load i8, ptr %18, align 1
  %48 = zext i8 %47 to i32
  switch i32 %48, label %92 [
    i32 0, label %49
    i32 1, label %60
    i32 2, label %70
    i32 3, label %81
  ]

49:                                               ; preds = %39
  %50 = load ptr, ptr %9, align 8
  %51 = load i32, ptr @hf_bssgp_peak_bit_rate, align 4
  %52 = load ptr, ptr %8, align 8
  %53 = load i32, ptr %16, align 4
  %54 = load i16, ptr %17, align 2
  %55 = zext i16 %54 to i32
  %56 = load i16, ptr %17, align 2
  %57 = zext i16 %56 to i32
  %58 = mul i32 %57, 100
  %59 = call ptr (ptr, i32, ptr, i32, i32, i32, ptr, ...) @proto_tree_add_uint_format_value(ptr noundef %50, i32 noundef %51, ptr noundef %52, i32 noundef %53, i32 noundef 2, i32 noundef %55, ptr noundef @.str.440, i32 noundef %58)
  br label %93

60:                                               ; preds = %39
  %61 = load ptr, ptr %9, align 8
  %62 = load i32, ptr @hf_bssgp_peak_bit_rate, align 4
  %63 = load ptr, ptr %8, align 8
  %64 = load i32, ptr %16, align 4
  %65 = load i16, ptr %17, align 2
  %66 = zext i16 %65 to i32
  %67 = load i16, ptr %17, align 2
  %68 = zext i16 %67 to i32
  %69 = call ptr (ptr, i32, ptr, i32, i32, i32, ptr, ...) @proto_tree_add_uint_format_value(ptr noundef %61, i32 noundef %62, ptr noundef %63, i32 noundef %64, i32 noundef 2, i32 noundef %66, ptr noundef @.str.441, i32 noundef %68)
  br label %93

70:                                               ; preds = %39
  %71 = load ptr, ptr %9, align 8
  %72 = load i32, ptr @hf_bssgp_peak_bit_rate, align 4
  %73 = load ptr, ptr %8, align 8
  %74 = load i32, ptr %16, align 4
  %75 = load i16, ptr %17, align 2
  %76 = zext i16 %75 to i32
  %77 = load i16, ptr %17, align 2
  %78 = zext i16 %77 to i32
  %79 = mul i32 %78, 10
  %80 = call ptr (ptr, i32, ptr, i32, i32, i32, ptr, ...) @proto_tree_add_uint_format_value(ptr noundef %71, i32 noundef %72, ptr noundef %73, i32 noundef %74, i32 noundef 2, i32 noundef %76, ptr noundef @.str.441, i32 noundef %79)
  br label %93

81:                                               ; preds = %39
  %82 = load ptr, ptr %9, align 8
  %83 = load i32, ptr @hf_bssgp_peak_bit_rate, align 4
  %84 = load ptr, ptr %8, align 8
  %85 = load i32, ptr %16, align 4
  %86 = load i16, ptr %17, align 2
  %87 = zext i16 %86 to i32
  %88 = load i16, ptr %17, align 2
  %89 = zext i16 %88 to i32
  %90 = mul i32 %89, 100
  %91 = call ptr (ptr, i32, ptr, i32, i32, i32, ptr, ...) @proto_tree_add_uint_format_value(ptr noundef %82, i32 noundef %83, ptr noundef %84, i32 noundef %85, i32 noundef 2, i32 noundef %87, ptr noundef @.str.441, i32 noundef %90)
  br label %93

92:                                               ; preds = %39
  br label %93

93:                                               ; preds = %92, %81, %70, %60, %49
  br label %94

94:                                               ; preds = %93, %31
  %95 = load i32, ptr %16, align 4
  %96 = add i32 %95, 2
  store i32 %96, ptr %16, align 4
  %97 = load ptr, ptr %9, align 8
  %98 = load i32, ptr @hf_bssgp_peak_rate_gran, align 4
  %99 = load ptr, ptr %8, align 8
  %100 = load i32, ptr %16, align 4
  %101 = call ptr @proto_tree_add_item(ptr noundef %97, i32 noundef %98, ptr noundef %99, i32 noundef %100, i32 noundef 1, i32 noundef 0)
  %102 = load ptr, ptr %9, align 8
  %103 = load i32, ptr @hf_bssgp_cr_bit, align 4
  %104 = load ptr, ptr %8, align 8
  %105 = load i32, ptr %16, align 4
  %106 = call ptr @proto_tree_add_item(ptr noundef %102, i32 noundef %103, ptr noundef %104, i32 noundef %105, i32 noundef 1, i32 noundef 0)
  %107 = load ptr, ptr %9, align 8
  %108 = load i32, ptr @hf_bssgp_t_bit, align 4
  %109 = load ptr, ptr %8, align 8
  %110 = load i32, ptr %16, align 4
  %111 = call ptr @proto_tree_add_item(ptr noundef %107, i32 noundef %108, ptr noundef %109, i32 noundef %110, i32 noundef 1, i32 noundef 0)
  %112 = load ptr, ptr %9, align 8
  %113 = load i32, ptr @hf_bssgp_a_bit, align 4
  %114 = load ptr, ptr %8, align 8
  %115 = load i32, ptr %16, align 4
  %116 = call ptr @proto_tree_add_item(ptr noundef %112, i32 noundef %113, ptr noundef %114, i32 noundef %115, i32 noundef 1, i32 noundef 0)
  %117 = load ptr, ptr %8, align 8
  %118 = load i32, ptr %16, align 4
  %119 = call zeroext i8 @tvb_get_uint8(ptr noundef %117, i32 noundef %118)
  %120 = zext i8 %119 to i32
  %121 = and i32 %120, 7
  %122 = trunc i32 %121 to i8
  store i8 %122, ptr %19, align 1
  %123 = load ptr, ptr %9, align 8
  %124 = load i32, ptr @hf_bssgp_precedence, align 4
  %125 = load ptr, ptr %8, align 8
  %126 = load i32, ptr %16, align 4
  %127 = call ptr @proto_tree_add_item(ptr noundef %123, i32 noundef %124, ptr noundef %125, i32 noundef %126, i32 noundef 1, i32 noundef 0)
  store ptr %127, ptr %15, align 8
  %128 = load i32, ptr %20, align 4
  %129 = icmp eq i32 %128, 1
  br i1 %129, label %130, label %135

130:                                              ; preds = %94
  %131 = load ptr, ptr %15, align 8
  %132 = load i8, ptr %19, align 1
  %133 = zext i8 %132 to i32
  %134 = call ptr @val_to_str_const(i32 noundef %133, ptr noundef @bssgp_precedence_dl, ptr noundef @.str.443)
  call void (ptr, ptr, ...) @proto_item_append_text(ptr noundef %131, ptr noundef @.str.442, ptr noundef %134)
  br label %140

135:                                              ; preds = %94
  %136 = load ptr, ptr %15, align 8
  %137 = load i8, ptr %19, align 1
  %138 = zext i8 %137 to i32
  %139 = call ptr @val_to_str_const(i32 noundef %138, ptr noundef @bssgp_precedence_ul, ptr noundef @.str.444)
  call void (ptr, ptr, ...) @proto_item_append_text(ptr noundef %136, ptr noundef @.str.442, ptr noundef %139)
  br label %140

140:                                              ; preds = %135, %130
  %141 = load i32, ptr %16, align 4
  %142 = add i32 %141, 1
  store i32 %142, ptr %16, align 4
  %143 = load i32, ptr %16, align 4
  %144 = load i32, ptr %11, align 4
  %145 = sub i32 %143, %144
  %146 = trunc i32 %145 to i16
  call void @llvm.lifetime.end.p0(i64 4, ptr %20) #4
  call void @llvm.lifetime.end.p0(i64 1, ptr %19) #4
  call void @llvm.lifetime.end.p0(i64 1, ptr %18) #4
  call void @llvm.lifetime.end.p0(i64 2, ptr %17) #4
  call void @llvm.lifetime.end.p0(i64 4, ptr %16) #4
  call void @llvm.lifetime.end.p0(i64 8, ptr %15) #4
  ret i16 %146
}