; Function Attrs: null_pointer_is_valid sspstrong uwtable
define internal noundef zeroext i16 @de_bssgp_qos_profile(ptr noundef %0, ptr noundef %1, ptr noundef readonly captures(none) %2, i32 noundef %3, i32 %4, ptr readnone captures(none) %5, i32 %6) #1 {
  %8 = getelementptr inbounds nuw i8, ptr %2, i64 384
  %9 = load i32, ptr %8, align 8
  %10 = tail call zeroext i16 @tvb_get_ntohs(ptr noundef %0, i32 noundef %3)
  %11 = zext i16 %10 to i32
  %12 = icmp eq i16 %10, 0
  br i1 %12, label %13, label %16

13:                                               ; preds = %7
  %14 = load i32, ptr @hf_bssgp_peak_bit_rate, align 4
  %15 = tail call ptr (ptr, i32, ptr, i32, i32, i32, ptr, ...) @proto_tree_add_uint_format_value(ptr noundef %1, i32 noundef %14, ptr noundef %0, i32 noundef %3, i32 noundef 2, i32 noundef 0, ptr noundef nonnull @.str.439)
  %.pre = add i32 %3, 2
  br label %23

16:                                               ; preds = %7
  %17 = add i32 %3, 2
  %18 = tail call zeroext i8 @tvb_get_uint8(ptr noundef %0, i32 noundef %17)
  %cond = icmp ult i8 %18, 64
  br i1 %cond, label %19, label %23

19:                                               ; preds = %16
  %20 = load i32, ptr @hf_bssgp_peak_bit_rate, align 4
  %21 = mul nuw nsw i32 %11, 100
  %22 = tail call ptr (ptr, i32, ptr, i32, i32, i32, ptr, ...) @proto_tree_add_uint_format_value(ptr noundef %1, i32 noundef %20, ptr noundef %0, i32 noundef %3, i32 noundef 2, i32 noundef %11, ptr noundef nonnull @.str.440, i32 noundef %21)
  br label %23

23:                                               ; preds = %16, %19, %13
  %.pre-phi = phi i32 [ %17, %16 ], [ %17, %19 ], [ %.pre, %13 ]
  %24 = load i32, ptr @hf_bssgp_peak_rate_gran, align 4
  %25 = tail call ptr @proto_tree_add_item(ptr noundef %1, i32 noundef %24, ptr noundef %0, i32 noundef %.pre-phi, i32 noundef 1, i32 noundef 0)
  %26 = load i32, ptr @hf_bssgp_cr_bit, align 4
  %27 = tail call ptr @proto_tree_add_item(ptr noundef %1, i32 noundef %26, ptr noundef %0, i32 noundef %.pre-phi, i32 noundef 1, i32 noundef 0)
  %28 = load i32, ptr @hf_bssgp_t_bit, align 4
  %29 = tail call ptr @proto_tree_add_item(ptr noundef %1, i32 noundef %28, ptr noundef %0, i32 noundef %.pre-phi, i32 noundef 1, i32 noundef 0)
  %30 = load i32, ptr @hf_bssgp_a_bit, align 4
  %31 = tail call ptr @proto_tree_add_item(ptr noundef %1, i32 noundef %30, ptr noundef %0, i32 noundef %.pre-phi, i32 noundef 1, i32 noundef 0)
  %32 = tail call zeroext i8 @tvb_get_uint8(ptr noundef %0, i32 noundef %.pre-phi)
  %33 = and i8 %32, 7
  %34 = load i32, ptr @hf_bssgp_precedence, align 4
  %35 = tail call ptr @proto_tree_add_item(ptr noundef %1, i32 noundef %34, ptr noundef %0, i32 noundef %.pre-phi, i32 noundef 1, i32 noundef 0)
  %36 = icmp eq i32 %9, 1
  %37 = zext nneg i8 %33 to i32
  br i1 %36, label %38, label %40

38:                                               ; preds = %23
  %39 = tail call ptr @val_to_str_const(i32 noundef %37, ptr noundef nonnull @bssgp_precedence_dl, ptr noundef nonnull @.str.443)
  br label %42

40:                                               ; preds = %23
  %41 = tail call ptr @val_to_str_const(i32 noundef %37, ptr noundef nonnull @bssgp_precedence_ul, ptr noundef nonnull @.str.444)
  br label %42

42:                                               ; preds = %40, %38
  %.sink = phi ptr [ %41, %40 ], [ %39, %38 ]
  tail call void (ptr, ptr, ...) @proto_item_append_text(ptr noundef %35, ptr noundef nonnull @.str.442, ptr noundef %.sink)
  ret i16 3
}